; Function Attrs: mustprogress uwtable
define void @_ZN6Gluco210SimpSolver14garbageCollectEv(ptr noundef nonnull align 8 dereferenceable(1684) %0) unnamed_addr #2 align 2 personality ptr @__gxx_personality_v0 {
  %2 = alloca %"class.Gluco2::ClauseAllocator", align 8
  %3 = getelementptr inbounds i8, ptr %0, i64 864
  %4 = getelementptr inbounds i8, ptr %0, i64 872
  %5 = load i32, ptr %4, align 8
  %6 = getelementptr inbounds i8, ptr %0, i64 880
  %7 = load i32, ptr %6, align 8
  %8 = sub i32 %5, %7
  call void @llvm.memset.p0.i64(ptr noundef nonnull align 8 dereferenceable(20) %2, i8 0, i64 20, i1 false)
  call void @_ZN6Gluco215RegionAllocatorIjE8capacityEj(ptr noundef nonnull align 8 dereferenceable(20) %2, i32 noundef %8)
  %9 = getelementptr inbounds i8, ptr %2, i64 20
  store i8 0, ptr %9, align 4
  call void @_ZN6Gluco210SimpSolver14cleanUpClausesEv(ptr noundef nonnull align 8 dereferenceable(1684) %0)
  %10 = getelementptr inbounds i8, ptr %0, i64 884
  %11 = load i8, ptr %10, align 4
  %12 = and i8 %11, 1
  store i8 %12, ptr %9, align 4
  invoke void @_ZN6Gluco210SimpSolver8relocAllERNS_15ClauseAllocatorE(ptr noundef nonnull align 8 dereferenceable(1684) %0, ptr noundef nonnull align 8 dereferenceable(21) %2)
          to label %13 unwind label %25

13:                                               ; preds = %1
  invoke void @_ZN6Gluco26Solver8relocAllERNS_15ClauseAllocatorE(ptr noundef nonnull align 8 dereferenceable(1416) %0, ptr noundef nonnull align 8 dereferenceable(21) %2)
          to label %14 unwind label %25

14:                                               ; preds = %13
  %15 = getelementptr inbounds i8, ptr %0, i64 128
  %16 = load i32, ptr %15, align 8
  %17 = icmp sgt i32 %16, 1
  br i1 %17, label %18, label %29

18:                                               ; preds = %14
  %19 = load i32, ptr %4, align 8
  %20 = shl i32 %19, 2
  %21 = getelementptr inbounds i8, ptr %2, i64 8
  %22 = load i32, ptr %21, align 8
  %23 = shl i32 %22, 2
  %24 = call i32 (ptr, ...) @printf(ptr noundef nonnull dereferenceable(1) @.str.28, i32 noundef %20, i32 noundef %23)
  br label %29

25:                                               ; preds = %13, %1
  %26 = landingpad { ptr, i32 }
          cleanup
  %27 = load ptr, ptr %2, align 8
  %.not.i.i = icmp eq ptr %27, null
  br i1 %.not.i.i, label %_ZN6Gluco215ClauseAllocatorD2Ev.exit, label %28

28:                                               ; preds = %25
  call void @free(ptr noundef nonnull %27) #23
  br label %_ZN6Gluco215ClauseAllocatorD2Ev.exit

_ZN6Gluco215ClauseAllocatorD2Ev.exit:             ; preds = %25, %28
  resume { ptr, i32 } %26

29:                                               ; preds = %18, %14
  %30 = load i8, ptr %9, align 4
  %31 = and i8 %30, 1
  store i8 %31, ptr %10, align 4
  %32 = load ptr, ptr %3, align 8
  %.not.i.i2 = icmp eq ptr %32, null
  br i1 %.not.i.i2, label %_ZN6Gluco215ClauseAllocatorD2Ev.exit4, label %33

33:                                               ; preds = %29
  call void @free(ptr noundef nonnull %32) #23
  br label %_ZN6Gluco215ClauseAllocatorD2Ev.exit4

_ZN6Gluco215ClauseAllocatorD2Ev.exit4:            ; preds = %29, %33
  %34 = load ptr, ptr %2, align 8
  store ptr %34, ptr %3, align 8
  %35 = getelementptr inbounds i8, ptr %2, i64 8
  %36 = load <2 x i32>, ptr %35, align 8
  store <2 x i32> %36, ptr %4, align 8
  %37 = getelementptr inbounds i8, ptr %2, i64 16
  %38 = load i32, ptr %37, align 8
  store i32 %38, ptr %6, align 8
  ret void
}